; Function Attrs: nofree nosync nounwind memory(argmem: readwrite) uwtable
define void @ff_sws_get_adaptation(ptr dead_on_unwind noalias writable sret(%struct.SwsMatrix3x3) align 4 captures(none) initializes((0, 36)) %0, ptr noundef readonly captures(none) %1, i64 %2, i64 %3, i64 %4, i64 %5) local_unnamed_addr #4 {
  %7 = alloca %struct.SwsMatrix3x3, align 4
  %8 = alloca %struct.AVColorPrimariesDesc, align 8
  call void @llvm.lifetime.start.p0(i64 36, ptr nonnull %7) #10
  call void @llvm.lifetime.start.p0(i64 64, ptr nonnull %8) #10
  store i64 %2, ptr %8, align 8
  %.sroa.3.0..sroa_idx = getelementptr inbounds nuw i8, ptr %8, i64 8
  store i64 %3, ptr %.sroa.3.0..sroa_idx, align 8
  %9 = getelementptr inbounds nuw i8, ptr %8, i64 16
  call void @llvm.memcpy.p0.p0.i64(ptr noundef nonnull align 8 dereferenceable(48) %9, ptr noundef nonnull align 4 dereferenceable(48) %1, i64 48, i1 false), !tbaa.struct !14
  call void @ff_sws_rgb2xyz(ptr dead_on_unwind nonnull writable sret(%struct.SwsMatrix3x3) align 4 %7, ptr noundef nonnull %8)
  call void @ff_sws_xyz2rgb(ptr dead_on_unwind nonnull writable sret(%struct.SwsMatrix3x3) align 4 %0, ptr noundef nonnull %8)
  tail call fastcc void @apply_chromatic_adaptation(i64 %2, i64 %3, i64 %4, i64 %5, ptr noundef nonnull %0)
  %10 = load float, ptr %0, align 4, !tbaa !4
  %11 = getelementptr inbounds nuw i8, ptr %0, i64 4
  %12 = load float, ptr %11, align 4, !tbaa !4
  %13 = getelementptr inbounds nuw i8, ptr %0, i64 8
  %14 = load float, ptr %13, align 4, !tbaa !4
  %15 = getelementptr inbounds nuw i8, ptr %0, i64 12
  %16 = load float, ptr %15, align 4, !tbaa !4
  %17 = getelementptr inbounds nuw i8, ptr %0, i64 16
  %18 = load float, ptr %17, align 4, !tbaa !4
  %19 = getelementptr inbounds nuw i8, ptr %0, i64 20
  %20 = load float, ptr %19, align 4, !tbaa !4
  %21 = getelementptr inbounds nuw i8, ptr %0, i64 24
  %22 = load float, ptr %21, align 4, !tbaa !4
  %23 = getelementptr inbounds nuw i8, ptr %0, i64 28
  %24 = load float, ptr %23, align 4, !tbaa !4
  %25 = getelementptr inbounds nuw i8, ptr %0, i64 32
  %26 = load float, ptr %25, align 4, !tbaa !4
  %27 = getelementptr inbounds nuw i8, ptr %7, i64 12
  %28 = getelementptr inbounds nuw i8, ptr %7, i64 24
  br label %29

29:                                               ; preds = %29, %6
  %indvars.iv.i = phi i64 [ 0, %6 ], [ %indvars.iv.next.i, %29 ]
  %30 = getelementptr inbounds nuw [3 x float], ptr %7, i64 0, i64 %indvars.iv.i
  %31 = load float, ptr %30, align 4, !tbaa !4
  %32 = getelementptr inbounds nuw [3 x float], ptr %27, i64 0, i64 %indvars.iv.i
  %33 = load float, ptr %32, align 4, !tbaa !4
  %34 = fmul nsz float %12, %33
  %35 = tail call nsz float @llvm.fmuladd.f32(float %10, float %31, float %34)
  %36 = getelementptr inbounds nuw [3 x float], ptr %28, i64 0, i64 %indvars.iv.i
  %37 = load float, ptr %36, align 4, !tbaa !4
  %38 = tail call nsz float @llvm.fmuladd.f32(float %14, float %37, float %35)
  %39 = getelementptr inbounds nuw [3 x float], ptr %0, i64 0, i64 %indvars.iv.i
  store float %38, ptr %39, align 4, !tbaa !4
  %40 = fmul nsz float %18, %33
  %41 = tail call nsz float @llvm.fmuladd.f32(float %16, float %31, float %40)
  %42 = tail call nsz float @llvm.fmuladd.f32(float %20, float %37, float %41)
  %43 = getelementptr inbounds nuw [3 x float], ptr %15, i64 0, i64 %indvars.iv.i
  store float %42, ptr %43, align 4, !tbaa !4
  %44 = fmul nsz float %24, %33
  %45 = tail call nsz float @llvm.fmuladd.f32(float %22, float %31, float %44)
  %46 = tail call nsz float @llvm.fmuladd.f32(float %26, float %37, float %45)
  %47 = getelementptr inbounds nuw [3 x float], ptr %21, i64 0, i64 %indvars.iv.i
  store float %46, ptr %47, align 4, !tbaa !4
  %indvars.iv.next.i = add nuw nsw i64 %indvars.iv.i, 1
  %exitcond.not.i = icmp eq i64 %indvars.iv.next.i, 3
  br i1 %exitcond.not.i, label %ff_sws_matrix3x3_mul.exit, label %29, !llvm.loop !8

ff_sws_matrix3x3_mul.exit:                        ; preds = %29
  call void @llvm.lifetime.end.p0(i64 64, ptr nonnull %8) #10
  call void @llvm.lifetime.end.p0(i64 36, ptr nonnull %7) #10
  ret void
}